target datalayout = "e-m:e-p270:32:32-p271:32:32-p272:64:64-i64:64-i128:128-f80:128-n8:16:32:64-S128"
target triple = "x86_64-pc-linux-gnu"

%class.LIR_Opr = type { i64 }
%class.LIR_Op = type { ptr, %class.LIR_Opr, i16, i16, ptr, i32, i32, ptr }
%class.LIR_Op1 = type { %class.LIR_Op, %class.LIR_Opr, i8, i32 }
%class.LIR_OprPtr = type { ptr }
%class.LIR_Const = type { %class.LIR_OprPtr, %class.JavaValue }
%class.JavaValue = type { i8, %"union.JavaValue::JavaCallValue" }
%"union.JavaValue::JavaCallValue" = type { double }

; Function Attrs: mustprogress nounwind uwtable
define linkonce_odr hidden noundef i32 @_ZNK9JavaValue8get_jintEv(ptr noundef nonnull align 8 dereferenceable(16) %0) #1 comdat align 2 {
  %2 = alloca ptr, align 8
  store ptr %0, ptr %2, align 8
  %3 = load ptr, ptr %2, align 8
  %4 = getelementptr inbounds %class.JavaValue, ptr %3, i32 0, i32 1
  %5 = load i32, ptr %4, align 8
  ret i32 %5
}

; Function Attrs: mustprogress nounwind uwtable
define linkonce_odr hidden void @_ZNK9LIR_Const10type_checkE9BasicTypeS0_(ptr noundef nonnull align 8 dereferenceable(24) %0, i8 noundef zeroext %1, i8 noundef zeroext %2) #1 comdat align 2 {
  %4 = alloca ptr, align 8
  %5 = alloca i8, align 1
  %6 = alloca i8, align 1
  store ptr %0, ptr %4, align 8
  store i8 %1, ptr %5, align 1
  store i8 %2, ptr %6, align 1
  ret void
}

; Function Attrs: mustprogress nounwind uwtable
define linkonce_odr hidden noundef ptr @_ZNK7LIR_Opr7pointerEv(ptr noundef nonnull align 8 dereferenceable(8) %0) #1 comdat align 2 {
  %2 = alloca ptr, align 8
  store ptr %0, ptr %2, align 8
  %3 = load ptr, ptr %2, align 8
  %4 = getelementptr inbounds %class.LIR_Opr, ptr %3, i32 0, i32 0
  %5 = load i64, ptr %4, align 8
  %6 = inttoptr i64 %5 to ptr
  ret ptr %6
}

; Function Attrs: mustprogress nounwind uwtable
define linkonce_odr hidden noundef i32 @_ZNK9LIR_Const7as_jintEv(ptr noundef nonnull align 8 dereferenceable(24) %0) #1 comdat align 2 {
  %2 = alloca ptr, align 8
  store ptr %0, ptr %2, align 8
  %3 = load ptr, ptr %2, align 8
  call void @_ZNK9LIR_Const10type_checkE9BasicTypeS0_(ptr noundef nonnull align 8 dereferenceable(24) %3, i8 noundef zeroext 10, i8 noundef zeroext 15)
  %4 = getelementptr inbounds %class.LIR_Const, ptr %3, i32 0, i32 1
  %5 = call noundef i32 @_ZNK9JavaValue8get_jintEv(ptr noundef nonnull align 8 dereferenceable(16) %4)
  ret i32 %5
}

; Function Attrs: mustprogress nounwind uwtable
define linkonce_odr hidden noundef ptr @_ZNK7LIR_Opr15as_constant_ptrEv(ptr noundef nonnull align 8 dereferenceable(8) %0) #1 comdat align 2 {
  %2 = alloca ptr, align 8
  store ptr %0, ptr %2, align 8
  %3 = load ptr, ptr %2, align 8
  %4 = call noundef ptr @_ZNK7LIR_Opr7pointerEv(ptr noundef nonnull align 8 dereferenceable(8) %3)
  %5 = load ptr, ptr %4, align 8
  %6 = getelementptr inbounds ptr, ptr %5, i64 0
  %7 = load ptr, ptr %6, align 8
  %8 = call noundef ptr %7(ptr noundef nonnull align 8 dereferenceable(8) %4)
  ret ptr %8
}

; Function Attrs: mustprogress nounwind uwtable
define linkonce_odr hidden noundef i32 @_ZNK7LIR_Opr7as_jintEv(ptr noundef nonnull align 8 dereferenceable(8) %0) #1 comdat align 2 {
  %2 = alloca ptr, align 8
  store ptr %0, ptr %2, align 8
  %3 = load ptr, ptr %2, align 8
  %4 = call noundef ptr @_ZNK7LIR_Opr15as_constant_ptrEv(ptr noundef nonnull align 8 dereferenceable(8) %3)
  %5 = call noundef i32 @_ZNK9LIR_Const7as_jintEv(ptr noundef nonnull align 8 dereferenceable(24) %4)
  ret i32 %5
}

; Function Attrs: mustprogress nounwind uwtable
define linkonce_odr hidden noundef ptr @_ZN7LIR_OprptEv(ptr noundef nonnull align 8 dereferenceable(8) %0) #1 comdat align 2 {
  %2 = alloca ptr, align 8
  store ptr %0, ptr %2, align 8
  %3 = load ptr, ptr %2, align 8
  ret ptr %3
}

; Function Attrs: mustprogress nounwind uwtable
define linkonce_odr hidden i64 @_ZNK6LIR_Op10result_oprEv(ptr noundef nonnull align 8 dereferenceable(48) %0) #1 comdat align 2 {
  %2 = alloca %class.LIR_Opr, align 8
  %3 = alloca ptr, align 8
  store ptr %0, ptr %3, align 8
  %4 = load ptr, ptr %3, align 8
  %5 = getelementptr inbounds %class.LIR_Op, ptr %4, i32 0, i32 1
  call void @llvm.memcpy.p0.p0.i64(ptr align 8 %2, ptr align 8 %5, i64 8, i1 false)
  %6 = getelementptr inbounds %class.LIR_Opr, ptr %2, i32 0, i32 0
  %7 = load i64, ptr %6, align 8
  ret i64 %7
}

; Function Attrs: mustprogress nounwind uwtable
define linkonce_odr hidden noundef zeroext i1 @_ZNK7LIR_OpreqERKS_(ptr noundef nonnull align 8 dereferenceable(8) %0, ptr noundef nonnull align 8 dereferenceable(8) %1) #1 comdat align 2 {
  %3 = alloca ptr, align 8
  %4 = alloca ptr, align 8
  store ptr %0, ptr %3, align 8
  store ptr %1, ptr %4, align 8
  %5 = load ptr, ptr %3, align 8
  %6 = getelementptr inbounds %class.LIR_Opr, ptr %5, i32 0, i32 0
  %7 = load i64, ptr %6, align 8
  %8 = load ptr, ptr %4, align 8
  %9 = getelementptr inbounds %class.LIR_Opr, ptr %8, i32 0, i32 0
  %10 = load i64, ptr %9, align 8
  %11 = icmp eq i64 %7, %10
  ret i1 %11
}

; Function Attrs: mustprogress nounwind uwtable
define linkonce_odr hidden i64 @_ZNK7LIR_Op16in_oprEv(ptr noundef nonnull align 8 dereferenceable(64) %0) #1 comdat align 2 {
  %2 = alloca %class.LIR_Opr, align 8
  %3 = alloca ptr, align 8
  store ptr %0, ptr %3, align 8
  %4 = load ptr, ptr %3, align 8
  %5 = getelementptr inbounds %class.LIR_Op1, ptr %4, i32 0, i32 1
  call void @llvm.memcpy.p0.p0.i64(ptr align 8 %2, ptr align 8 %5, i64 8, i1 false)
  %6 = getelementptr inbounds %class.LIR_Opr, ptr %2, i32 0, i32 0
  %7 = load i64, ptr %6, align 8
  ret i64 %7
}

; Function Attrs: mustprogress nounwind uwtable
define linkonce_odr hidden noundef ptr @_ZNK6LIR_Op4infoEv(ptr noundef nonnull align 8 dereferenceable(48) %0) #1 comdat align 2 {
  %2 = alloca ptr, align 8
  store ptr %0, ptr %2, align 8
  %3 = load ptr, ptr %2, align 8
  %4 = getelementptr inbounds %class.LIR_Op, ptr %3, i32 0, i32 4
  %5 = load ptr, ptr %4, align 8
  ret ptr %5
}

; Function Attrs: mustprogress nounwind uwtable
define linkonce_odr hidden noundef i32 @_ZNK6LIR_Op4codeEv(ptr noundef nonnull align 8 dereferenceable(48) %0) #1 comdat align 2 {
  %2 = alloca ptr, align 8
  store ptr %0, ptr %2, align 8
  %3 = load ptr, ptr %2, align 8
  %4 = getelementptr inbounds %class.LIR_Op, ptr %3, i32 0, i32 2
  %5 = load i16, ptr %4, align 8
  %6 = zext i16 %5 to i32
  ret i32 %6
}

; Function Attrs: mustprogress nounwind uwtable
define hidden noundef zeroext i1 @_ZN17EdgeMoveOptimizer20operations_differentEP6LIR_OpS1_(ptr noundef nonnull align 8 dereferenceable(48) %0, ptr noundef %1, ptr noundef %2) #1 align 2 {
  %4 = alloca i1, align 1
  %5 = alloca ptr, align 8
  %6 = alloca ptr, align 8
  %7 = alloca ptr, align 8
  %8 = alloca ptr, align 8
  %9 = alloca ptr, align 8
  %10 = alloca %class.LIR_Opr, align 8
  %11 = alloca %class.LIR_Opr, align 8
  %12 = alloca %class.LIR_Opr, align 8
  %13 = alloca %class.LIR_Opr, align 8
  %14 = alloca ptr, align 8
  %15 = alloca ptr, align 8
  %16 = alloca %class.LIR_Opr, align 8
  %17 = alloca %class.LIR_Opr, align 8
  store ptr %0, ptr %5, align 8
  store ptr %1, ptr %6, align 8
  store ptr %2, ptr %7, align 8
  %18 = load ptr, ptr %6, align 8
  %19 = icmp eq ptr %18, null
  br i1 %19, label %23, label %20

20:                                               ; preds = %3
  %21 = load ptr, ptr %7, align 8
  %22 = icmp eq ptr %21, null
  br i1 %22, label %23, label %24

23:                                               ; preds = %20, %3
  store i1 true, ptr %4, align 1
  br label %96

24:                                               ; preds = %20
  %25 = load ptr, ptr %6, align 8
  %26 = call noundef i32 @_ZNK6LIR_Op4codeEv(ptr noundef nonnull align 8 dereferenceable(48) %25)
  %27 = icmp eq i32 %26, 27
  br i1 %27, label %28, label %60

28:                                               ; preds = %24
  %29 = load ptr, ptr %7, align 8
  %30 = call noundef i32 @_ZNK6LIR_Op4codeEv(ptr noundef nonnull align 8 dereferenceable(48) %29)
  %31 = icmp eq i32 %30, 27
  br i1 %31, label %32, label %60

32:                                               ; preds = %28
  %33 = load ptr, ptr %6, align 8
  store ptr %33, ptr %8, align 8
  %34 = load ptr, ptr %7, align 8
  store ptr %34, ptr %9, align 8
  %35 = load ptr, ptr %8, align 8
  %36 = call noundef ptr @_ZNK6LIR_Op4infoEv(ptr noundef nonnull align 8 dereferenceable(48) %35)
  %37 = load ptr, ptr %9, align 8
  %38 = call noundef ptr @_ZNK6LIR_Op4infoEv(ptr noundef nonnull align 8 dereferenceable(48) %37)
  %39 = icmp eq ptr %36, %38
  br i1 %39, label %40, label %56

40:                                               ; preds = %32
  %41 = load ptr, ptr %8, align 8
  %42 = call i64 @_ZNK7LIR_Op16in_oprEv(ptr noundef nonnull align 8 dereferenceable(64) %41)
  %43 = getelementptr inbounds %class.LIR_Opr, ptr %10, i32 0, i32 0
  store i64 %42, ptr %43, align 8
  %44 = load ptr, ptr %9, align 8
  %45 = call i64 @_ZNK7LIR_Op16in_oprEv(ptr noundef nonnull align 8 dereferenceable(64) %44)
  %46 = getelementptr inbounds %class.LIR_Opr, ptr %11, i32 0, i32 0
  store i64 %45, ptr %46, align 8
  %47 = call noundef zeroext i1 @_ZNK7LIR_OpreqERKS_(ptr noundef nonnull align 8 dereferenceable(8) %10, ptr noundef nonnull align 8 dereferenceable(8) %11)
  br i1 %47, label %48, label %56

48:                                               ; preds = %40
  %49 = load ptr, ptr %8, align 8
  %50 = call i64 @_ZNK6LIR_Op10result_oprEv(ptr noundef nonnull align 8 dereferenceable(48) %49)
  %51 = getelementptr inbounds %class.LIR_Opr, ptr %12, i32 0, i32 0
  store i64 %50, ptr %51, align 8
  %52 = load ptr, ptr %9, align 8
  %53 = call i64 @_ZNK6LIR_Op10result_oprEv(ptr noundef nonnull align 8 dereferenceable(48) %52)
  %54 = getelementptr inbounds %class.LIR_Opr, ptr %13, i32 0, i32 0
  store i64 %53, ptr %54, align 8
  %55 = call noundef zeroext i1 @_ZNK7LIR_OpreqERKS_(ptr noundef nonnull align 8 dereferenceable(8) %12, ptr noundef nonnull align 8 dereferenceable(8) %13)
  br label %56

56:                                               ; preds = %48, %40, %32
  %57 = phi i1 [ false, %40 ], [ false, %32 ], [ %55, %48 ]
  br i1 %57, label %58, label %59

58:                                               ; preds = %56
  store i1 false, ptr %4, align 1
  br label %96

59:                                               ; preds = %56
  br label %95

60:                                               ; preds = %28, %24
  %61 = load ptr, ptr %6, align 8
  %62 = call noundef i32 @_ZNK6LIR_Op4codeEv(ptr noundef nonnull align 8 dereferenceable(48) %61)
  %63 = icmp eq i32 %62, 20
  br i1 %63, label %64, label %84

64:                                               ; preds = %60
  %65 = load ptr, ptr %7, align 8
  %66 = call noundef i32 @_ZNK6LIR_Op4codeEv(ptr noundef nonnull align 8 dereferenceable(48) %65)
  %67 = icmp eq i32 %66, 20
  br i1 %67, label %68, label %84

68:                                               ; preds = %64
  %69 = load ptr, ptr %6, align 8
  store ptr %69, ptr %14, align 8
  %70 = load ptr, ptr %7, align 8
  store ptr %70, ptr %15, align 8
  %71 = load ptr, ptr %14, align 8
  %72 = call i64 @_ZNK7LIR_Op16in_oprEv(ptr noundef nonnull align 8 dereferenceable(64) %71)
  %73 = getelementptr inbounds %class.LIR_Opr, ptr %16, i32 0, i32 0
  store i64 %72, ptr %73, align 8
  %74 = call noundef ptr @_ZN7LIR_OprptEv(ptr noundef nonnull align 8 dereferenceable(8) %16)
  %75 = call noundef i32 @_ZNK7LIR_Opr7as_jintEv(ptr noundef nonnull align 8 dereferenceable(8) %74)
  %76 = load ptr, ptr %15, align 8
  %77 = call i64 @_ZNK7LIR_Op16in_oprEv(ptr noundef nonnull align 8 dereferenceable(64) %76)
  %78 = getelementptr inbounds %class.LIR_Opr, ptr %17, i32 0, i32 0
  store i64 %77, ptr %78, align 8
  %79 = call noundef ptr @_ZN7LIR_OprptEv(ptr noundef nonnull align 8 dereferenceable(8) %17)
  %80 = call noundef i32 @_ZNK7LIR_Opr7as_jintEv(ptr noundef nonnull align 8 dereferenceable(8) %79)
  %81 = icmp eq i32 %75, %80
  br i1 %81, label %82, label %83

82:                                               ; preds = %68
  store i1 false, ptr %4, align 1
  br label %96

83:                                               ; preds = %68
  br label %94

84:                                               ; preds = %64, %60
  %85 = load ptr, ptr %6, align 8
  %86 = call noundef i32 @_ZNK6LIR_Op4codeEv(ptr noundef nonnull align 8 dereferenceable(48) %85)
  %87 = icmp eq i32 %86, 6
  br i1 %87, label %88, label %93

88:                                               ; preds = %84
  %89 = load ptr, ptr %7, align 8
  %90 = call noundef i32 @_ZNK6LIR_Op4codeEv(ptr noundef nonnull align 8 dereferenceable(48) %89)
  %91 = icmp eq i32 %90, 6
  br i1 %91, label %92, label %93

92:                                               ; preds = %88
  store i1 false, ptr %4, align 1
  br label %96

93:                                               ; preds = %88, %84
  br label %94

94:                                               ; preds = %93, %83
  br label %95

95:                                               ; preds = %94, %59
  store i1 true, ptr %4, align 1
  br label %96

96:                                               ; preds = %95, %92, %82, %58, %23
  %97 = load i1, ptr %4, align 1
  ret i1 %97
}