; Function Attrs: mustprogress nounwind uwtable
define hidden noundef zeroext i1 @_ZN17EdgeMoveOptimizer20operations_differentEP6LIR_OpS1_(ptr nocapture noundef nonnull readnone align 8 dereferenceable(48) %0, ptr noundef readonly %1, ptr noundef readonly %2) local_unnamed_addr #0 align 2 {
  %4 = icmp eq ptr %1, null
  %5 = icmp eq ptr %2, null
  %or.cond = or i1 %4, %5
  br i1 %or.cond, label %51, label %6

6:                                                ; preds = %3
  %7 = getelementptr inbounds i8, ptr %1, i64 16
  %8 = load i16, ptr %7, align 8
  switch i16 %8, label %.critedge [
    i16 27, label %9
    i16 20, label %27
    i16 6, label %47
  ]

9:                                                ; preds = %6
  %10 = getelementptr inbounds i8, ptr %2, i64 16
  %11 = load i16, ptr %10, align 8
  %12 = icmp eq i16 %11, 27
  br i1 %12, label %13, label %.critedge

13:                                               ; preds = %9
  %14 = getelementptr inbounds i8, ptr %1, i64 24
  %15 = load ptr, ptr %14, align 8
  %16 = getelementptr inbounds i8, ptr %2, i64 24
  %17 = load ptr, ptr %16, align 8
  %18 = icmp eq ptr %15, %17
  br i1 %18, label %19, label %.critedge

19:                                               ; preds = %13
  %20 = getelementptr inbounds i8, ptr %1, i64 48
  %.sroa.0.0.copyload.i = load i64, ptr %20, align 8
  %21 = getelementptr inbounds i8, ptr %2, i64 48
  %.sroa.0.0.copyload.i24 = load i64, ptr %21, align 8
  %22 = icmp eq i64 %.sroa.0.0.copyload.i, %.sroa.0.0.copyload.i24
  br i1 %22, label %23, label %.critedge

23:                                               ; preds = %19
  %24 = getelementptr inbounds i8, ptr %1, i64 8
  %.sroa.0.0.copyload.i25 = load i64, ptr %24, align 8
  %25 = getelementptr inbounds i8, ptr %2, i64 8
  %.sroa.0.0.copyload.i26 = load i64, ptr %25, align 8
  %26 = icmp eq i64 %.sroa.0.0.copyload.i25, %.sroa.0.0.copyload.i26
  br i1 %26, label %51, label %.critedge

27:                                               ; preds = %6
  %28 = getelementptr inbounds i8, ptr %2, i64 16
  %29 = load i16, ptr %28, align 8
  %30 = icmp eq i16 %29, 20
  br i1 %30, label %31, label %.critedge

31:                                               ; preds = %27
  %32 = getelementptr inbounds i8, ptr %1, i64 48
  %.sroa.0.0.copyload.i27 = load i64, ptr %32, align 8
  %33 = inttoptr i64 %.sroa.0.0.copyload.i27 to ptr
  %34 = load ptr, ptr %33, align 8
  %35 = load ptr, ptr %34, align 8
  %36 = tail call noundef ptr %35(ptr noundef nonnull align 8 dereferenceable(8) %33) #22
  %37 = getelementptr inbounds i8, ptr %36, i64 16
  %38 = load i32, ptr %37, align 8
  %39 = getelementptr inbounds i8, ptr %2, i64 48
  %.sroa.0.0.copyload.i28 = load i64, ptr %39, align 8
  %40 = inttoptr i64 %.sroa.0.0.copyload.i28 to ptr
  %41 = load ptr, ptr %40, align 8
  %42 = load ptr, ptr %41, align 8
  %43 = tail call noundef ptr %42(ptr noundef nonnull align 8 dereferenceable(8) %40) #22
  %44 = getelementptr inbounds i8, ptr %43, i64 16
  %45 = load i32, ptr %44, align 8
  %46 = icmp eq i32 %38, %45
  br i1 %46, label %51, label %.critedge

47:                                               ; preds = %6
  %48 = getelementptr inbounds i8, ptr %2, i64 16
  %49 = load i16, ptr %48, align 8
  %50 = icmp eq i16 %49, 6
  br i1 %50, label %51, label %.critedge

.critedge:                                        ; preds = %6, %9, %27, %31, %47, %23, %13, %19
  br label %51

51:                                               ; preds = %47, %31, %23, %3, %.critedge
  %.0 = phi i1 [ true, %.critedge ], [ true, %3 ], [ false, %23 ], [ false, %31 ], [ false, %47 ]
  ret i1 %.0
}